; Function Attrs: nounwind uwtable
define internal ptr @hwloc_pci_component_instantiate(ptr noundef %0, ptr noundef %1, i32 %2, ptr readnone captures(none) %3, ptr readnone captures(none) %4, ptr readnone captures(none) %5) #1 {
  %7 = tail call ptr @hwloc_backend_alloc(ptr noundef %0, ptr noundef %1, i64 noundef 0) #10
  %.not = icmp eq ptr %7, null
  br i1 %.not, label %10, label %8

8:                                                ; preds = %6
  %9 = getelementptr inbounds nuw i8, ptr %7, i64 64
  store ptr @hwloc_look_pci, ptr %9, align 8, !tbaa !3
  br label %10

10:                                               ; preds = %6, %8
  ret ptr %7
}